target datalayout = "e-m:e-p270:32:32-p271:32:32-p272:64:64-i64:64-i128:128-f80:128-n8:16:32:64-S128"
target triple = "x86_64-pc-linux-gnu"

%struct.AVRational = type { i32, i32 }
%struct.AVCodecParameters = type { i32, i32, i32, ptr, i32, ptr, i32, i32, i64, i32, i32, i32, i32, i32, i32, %struct.AVRational, %struct.AVRational, i32, i32, i32, i32, i32, i32, i32, %struct.AVChannelLayout, i32, i32, i32, i32, i32, i32 }
%struct.AVChannelLayout = type { i32, i32, %union.anon.2, ptr }
%union.anon.2 = type { i64 }

@.str.3 = private unnamed_addr constant [37 x i8] c"Failed to read extradata of size %d\0A\00", align 1

; Function Attrs: nounwind uwtable
define i32 @ff_get_extradata(ptr noundef %0, ptr noundef %1, ptr noundef %2, i32 noundef %3) #0 {
  %5 = alloca i32, align 4
  %6 = alloca ptr, align 8
  %7 = alloca ptr, align 8
  %8 = alloca ptr, align 8
  %9 = alloca i32, align 4
  %10 = alloca i32, align 4
  %11 = alloca i32, align 4
  store ptr %0, ptr %6, align 8, !tbaa !102
  store ptr %1, ptr %7, align 8, !tbaa !103
  store ptr %2, ptr %8, align 8, !tbaa !69
  store i32 %3, ptr %9, align 4, !tbaa !33
  call void @llvm.lifetime.start.p0(i64 4, ptr %10) #6
  %12 = load ptr, ptr %7, align 8, !tbaa !103
  %13 = load i32, ptr %9, align 4, !tbaa !33
  %14 = call i32 @ff_alloc_extradata(ptr noundef %12, i32 noundef %13)
  store i32 %14, ptr %10, align 4, !tbaa !33
  %15 = load i32, ptr %10, align 4, !tbaa !33
  %16 = icmp slt i32 %15, 0
  br i1 %16, label %17, label %19

17:                                               ; preds = %4
  %18 = load i32, ptr %10, align 4, !tbaa !33
  store i32 %18, ptr %5, align 4
  store i32 1, ptr %11, align 4
  br label %38

19:                                               ; preds = %4
  %20 = load ptr, ptr %8, align 8, !tbaa !69
  %21 = load ptr, ptr %7, align 8, !tbaa !103
  %22 = getelementptr inbounds nuw %struct.AVCodecParameters, ptr %21, i32 0, i32 3
  %23 = load ptr, ptr %22, align 8, !tbaa !101
  %24 = load i32, ptr %9, align 4, !tbaa !33
  %25 = call i32 @ffio_read_size(ptr noundef %20, ptr noundef %23, i32 noundef %24)
  store i32 %25, ptr %10, align 4, !tbaa !33
  %26 = load i32, ptr %10, align 4, !tbaa !33
  %27 = icmp slt i32 %26, 0
  br i1 %27, label %28, label %36

28:                                               ; preds = %19
  %29 = load ptr, ptr %7, align 8, !tbaa !103
  %30 = getelementptr inbounds nuw %struct.AVCodecParameters, ptr %29, i32 0, i32 3
  call void @av_freep(ptr noundef %30)
  %31 = load ptr, ptr %7, align 8, !tbaa !103
  %32 = getelementptr inbounds nuw %struct.AVCodecParameters, ptr %31, i32 0, i32 4
  store i32 0, ptr %32, align 8, !tbaa !104
  %33 = load ptr, ptr %6, align 8, !tbaa !102
  %34 = load i32, ptr %9, align 4, !tbaa !33
  call void (ptr, i32, ptr, ...) @av_log(ptr noundef %33, i32 noundef 16, ptr noundef @.str.3, i32 noundef %34)
  %35 = load i32, ptr %10, align 4, !tbaa !33
  store i32 %35, ptr %5, align 4
  store i32 1, ptr %11, align 4
  br label %38

36:                                               ; preds = %19
  %37 = load i32, ptr %10, align 4, !tbaa !33
  store i32 %37, ptr %5, align 4
  store i32 1, ptr %11, align 4
  br label %38

38:                                               ; preds = %36, %28, %17
  call void @llvm.lifetime.end.p0(i64 4, ptr %10) #6
  %39 = load i32, ptr %5, align 4
  ret i32 %39
}