; Function Attrs: nounwind uwtable
define i32 @ff_get_extradata(ptr noundef %0, ptr noundef %1, ptr noundef %2, i32 noundef %3) local_unnamed_addr #2 {
  %5 = tail call i32 @ff_alloc_extradata(ptr noundef %1, i32 noundef %3) #6
  %6 = icmp slt i32 %5, 0
  br i1 %6, label %14, label %7

7:                                                ; preds = %4
  %8 = getelementptr inbounds nuw i8, ptr %1, i64 16
  %9 = load ptr, ptr %8, align 8, !tbaa !86
  %10 = tail call i32 @ffio_read_size(ptr noundef %2, ptr noundef %9, i32 noundef %3) #6
  %11 = icmp slt i32 %10, 0
  br i1 %11, label %12, label %14

12:                                               ; preds = %7
  tail call void @av_freep(ptr noundef nonnull %8) #6
  %13 = getelementptr inbounds nuw i8, ptr %1, i64 24
  store i32 0, ptr %13, align 8, !tbaa !87
  tail call void (ptr, i32, ptr, ...) @av_log(ptr noundef %0, i32 noundef 16, ptr noundef nonnull @.str.3, i32 noundef %3) #6
  br label %14

14:                                               ; preds = %7, %4, %12
  %.0 = phi i32 [ %10, %12 ], [ %5, %4 ], [ %10, %7 ]
  ret i32 %.0
}